target datalayout = "e-m:e-p270:32:32-p271:32:32-p272:64:64-i64:64-i128:128-f80:128-n8:16:32:64-S128"
target triple = "x86_64-pc-linux-gnu"

%"struct.faiss::VectorDistance.5" = type { i64, float }
%"struct.faiss::FlatCodesDistanceComputer" = type { %"struct.faiss::DistanceComputer", ptr, i64 }
%"struct.faiss::DistanceComputer" = type { ptr }
%"struct.faiss::(anonymous namespace)::ExtraDistanceComputer.13" = type { %"struct.faiss::FlatCodesDistanceComputer", %"struct.faiss::VectorDistance.5", i64, ptr, ptr }

; Function Attrs: mustprogress nounwind uwtable
define linkonce_odr noundef float @_ZNK5faiss14VectorDistanceILNS_10MetricTypeE4EEclEPKfS4_(ptr noundef nonnull align 8 dereferenceable(16) %0, ptr noundef %1, ptr noundef %2) #4 comdat align 2 {
  %4 = alloca ptr, align 8
  %5 = alloca ptr, align 8
  %6 = alloca ptr, align 8
  %7 = alloca float, align 4
  %8 = alloca i64, align 8
  %9 = alloca float, align 4
  store ptr %0, ptr %4, align 8
  store ptr %1, ptr %5, align 8
  store ptr %2, ptr %6, align 8
  %10 = load ptr, ptr %4, align 8
  store float 0.000000e+00, ptr %7, align 4
  store i64 0, ptr %8, align 8
  br label %11

11:                                               ; preds = %35, %3
  %12 = load i64, ptr %8, align 8
  %13 = getelementptr inbounds %"struct.faiss::VectorDistance.5", ptr %10, i32 0, i32 0
  %14 = load i64, ptr %13, align 8
  %15 = icmp ult i64 %12, %14
  br i1 %15, label %16, label %38

16:                                               ; preds = %11
  %17 = load ptr, ptr %5, align 8
  %18 = load i64, ptr %8, align 8
  %19 = getelementptr inbounds float, ptr %17, i64 %18
  %20 = load float, ptr %19, align 4
  %21 = load ptr, ptr %6, align 8
  %22 = load i64, ptr %8, align 8
  %23 = getelementptr inbounds float, ptr %21, i64 %22
  %24 = load float, ptr %23, align 4
  %25 = fsub float %20, %24
  %26 = fpext float %25 to double
  %27 = call double @llvm.fabs.f64(double %26)
  %28 = fptrunc double %27 to float
  store float %28, ptr %9, align 4
  %29 = load float, ptr %9, align 4
  %30 = getelementptr inbounds %"struct.faiss::VectorDistance.5", ptr %10, i32 0, i32 1
  %31 = load float, ptr %30, align 8
  %32 = call float @powf(float noundef %29, float noundef %31) #6
  %33 = load float, ptr %7, align 4
  %34 = fadd float %33, %32
  store float %34, ptr %7, align 4
  br label %35

35:                                               ; preds = %16
  %36 = load i64, ptr %8, align 8
  %37 = add i64 %36, 1
  store i64 %37, ptr %8, align 8
  br label %11, !llvm.loop !34

38:                                               ; preds = %11
  %39 = load float, ptr %7, align 4
  ret float %39
}

; Function Attrs: mustprogress nounwind uwtable
define internal noundef float @_ZN5faiss12_GLOBAL__N_121ExtraDistanceComputerINS_14VectorDistanceILNS_10MetricTypeE4EEEE16distance_to_codeEPKh(ptr noundef nonnull align 8 dereferenceable(64) %0, ptr noundef %1) unnamed_addr #4 align 2 {
  %3 = alloca ptr, align 8
  %4 = alloca ptr, align 8
  store ptr %0, ptr %3, align 8
  store ptr %1, ptr %4, align 8
  %5 = load ptr, ptr %3, align 8
  %6 = getelementptr inbounds %"struct.faiss::(anonymous namespace)::ExtraDistanceComputer.13", ptr %5, i32 0, i32 1
  %7 = getelementptr inbounds %"struct.faiss::(anonymous namespace)::ExtraDistanceComputer.13", ptr %5, i32 0, i32 3
  %8 = load ptr, ptr %7, align 8
  %9 = load ptr, ptr %4, align 8
  %10 = call noundef float @_ZNK5faiss14VectorDistanceILNS_10MetricTypeE4EEclEPKfS4_(ptr noundef nonnull align 8 dereferenceable(16) %6, ptr noundef %8, ptr noundef %9)
  ret float %10
}