; Function Attrs: mustprogress nofree nounwind memory(readwrite, inaccessiblemem: write) uwtable
define internal noundef float @_ZN5faiss12_GLOBAL__N_121ExtraDistanceComputerINS_14VectorDistanceILNS_10MetricTypeE4EEEE16distance_to_codeEPKh(ptr nocapture noundef nonnull readonly align 8 dereferenceable(64) %0, ptr nocapture noundef readonly %1) unnamed_addr #18 align 2 {
  %3 = getelementptr inbounds i8, ptr %0, i64 24
  %4 = getelementptr inbounds i8, ptr %0, i64 48
  %5 = load ptr, ptr %4, align 8
  %6 = load i64, ptr %3, align 8
  %.not.i = icmp eq i64 %6, 0
  br i1 %.not.i, label %_ZNK5faiss14VectorDistanceILNS_10MetricTypeE4EEclEPKfS4_.exit, label %.lr.ph.i

.lr.ph.i:                                         ; preds = %2
  %7 = getelementptr inbounds i8, ptr %0, i64 32
  br label %8

8:                                                ; preds = %8, %.lr.ph.i
  %.011.i = phi float [ 0.000000e+00, %.lr.ph.i ], [ %17, %8 ]
  %.0910.i = phi i64 [ 0, %.lr.ph.i ], [ %18, %8 ]
  %9 = getelementptr inbounds float, ptr %5, i64 %.0910.i
  %10 = load float, ptr %9, align 4
  %11 = getelementptr inbounds float, ptr %1, i64 %.0910.i
  %12 = load float, ptr %11, align 4
  %13 = fsub float %10, %12
  %14 = tail call float @llvm.fabs.f32(float %13)
  %15 = load float, ptr %7, align 8
  %16 = tail call float @powf(float noundef %14, float noundef %15) #5
  %17 = fadd float %.011.i, %16
  %18 = add nuw i64 %.0910.i, 1
  %19 = load i64, ptr %3, align 8
  %20 = icmp ult i64 %18, %19
  br i1 %20, label %8, label %_ZNK5faiss14VectorDistanceILNS_10MetricTypeE4EEclEPKfS4_.exit, !llvm.loop !31

_ZNK5faiss14VectorDistanceILNS_10MetricTypeE4EEclEPKfS4_.exit: ; preds = %8, %2
  %.0.lcssa.i = phi float [ 0.000000e+00, %2 ], [ %17, %8 ]
  ret float %.0.lcssa.i
}